target datalayout = "e-m:e-p270:32:32-p271:32:32-p272:64:64-i64:64-i128:128-f80:128-n8:16:32:64-S128"
target triple = "x86_64-pc-linux-gnu"

%class.cofactor_elim_term_ite = type { ptr, ptr, %class.params_ref }
%class.params_ref = type { ptr }
%"struct.cofactor_elim_term_ite::imp" = type <{ ptr, %class.params_ref, i64, i8, [7 x i8] }>

@.str = private unnamed_addr constant [11 x i8] c"max_memory\00", align 1
@.str.1 = private unnamed_addr constant [20 x i8] c"cofactor_equalities\00", align 1

; Function Attrs: inlinehint mustprogress nounwind uwtable
define linkonce_odr hidden noundef i64 @_Z18megabytes_to_bytesj(i32 noundef %0) #9 comdat {
  %2 = alloca i64, align 8
  %3 = alloca i32, align 4
  %4 = alloca i64, align 8
  %5 = alloca i64, align 8
  store i32 %0, ptr %3, align 4, !tbaa !35
  %6 = load i32, ptr %3, align 4, !tbaa !35
  %7 = icmp eq i32 %6, -1
  br i1 %7, label %8, label %9

8:                                                ; preds = %1
  store i64 -1, ptr %2, align 8
  br label %21

9:                                                ; preds = %1
  call void @llvm.lifetime.start.p0(i64 8, ptr %4) #3
  %10 = load i32, ptr %3, align 4, !tbaa !35
  %11 = zext i32 %10 to i64
  %12 = mul i64 %11, 1024
  %13 = mul i64 %12, 1024
  store i64 %13, ptr %4, align 8, !tbaa !37
  call void @llvm.lifetime.start.p0(i64 8, ptr %5) #3
  %14 = load i64, ptr %4, align 8, !tbaa !37
  store i64 %14, ptr %5, align 8, !tbaa !38
  %15 = load i64, ptr %5, align 8, !tbaa !38
  %16 = load i64, ptr %4, align 8, !tbaa !37
  %17 = icmp ne i64 %15, %16
  br i1 %17, label %18, label %19

18:                                               ; preds = %9
  store i64 -1, ptr %5, align 8, !tbaa !38
  br label %19

19:                                               ; preds = %18, %9
  %20 = load i64, ptr %5, align 8, !tbaa !38
  store i64 %20, ptr %2, align 8
  call void @llvm.lifetime.end.p0(i64 8, ptr %5) #3
  call void @llvm.lifetime.end.p0(i64 8, ptr %4) #3
  br label %21

21:                                               ; preds = %19, %8
  %22 = load i64, ptr %2, align 8
  ret i64 %22
}

; Function Attrs: mustprogress uwtable
define linkonce_odr hidden void @_ZN22cofactor_elim_term_ite3imp11updt_paramsERK10params_ref(ptr noundef nonnull align 8 dereferenceable(25) %0, ptr noundef nonnull align 8 dereferenceable(8) %1) #4 comdat align 2 {
  %3 = alloca ptr, align 8
  %4 = alloca ptr, align 8
  store ptr %0, ptr %3, align 8, !tbaa !19
  store ptr %1, ptr %4, align 8, !tbaa !10
  %5 = load ptr, ptr %3, align 8
  %6 = load ptr, ptr %4, align 8, !tbaa !10
  %7 = call noundef i32 @_ZNK10params_ref8get_uintEPKcj(ptr noundef nonnull align 8 dereferenceable(8) %6, ptr noundef @.str, i32 noundef -1)
  %8 = call noundef i64 @_Z18megabytes_to_bytesj(i32 noundef %7)
  %9 = getelementptr inbounds nuw %"struct.cofactor_elim_term_ite::imp", ptr %5, i32 0, i32 2
  store i64 %8, ptr %9, align 8, !tbaa !24
  %10 = load ptr, ptr %4, align 8, !tbaa !10
  %11 = call noundef zeroext i1 @_ZNK10params_ref8get_boolEPKcb(ptr noundef nonnull align 8 dereferenceable(8) %10, ptr noundef @.str.1, i1 noundef zeroext true)
  %12 = getelementptr inbounds nuw %"struct.cofactor_elim_term_ite::imp", ptr %5, i32 0, i32 3
  %13 = zext i1 %11 to i8
  store i8 %13, ptr %12, align 8, !tbaa !20
  ret void
}

; Function Attrs: mustprogress uwtable
define hidden void @_ZN22cofactor_elim_term_ite11updt_paramsERK10params_ref(ptr noundef nonnull align 8 dereferenceable(24) %0, ptr noundef nonnull align 8 dereferenceable(8) %1) #4 align 2 {
  %3 = alloca ptr, align 8
  %4 = alloca ptr, align 8
  store ptr %0, ptr %3, align 8, !tbaa !3
  store ptr %1, ptr %4, align 8, !tbaa !10
  %5 = load ptr, ptr %3, align 8
  %6 = getelementptr inbounds nuw %class.cofactor_elim_term_ite, ptr %5, i32 0, i32 1
  %7 = load ptr, ptr %6, align 8, !tbaa !14
  %8 = load ptr, ptr %4, align 8, !tbaa !10
  call void @_ZN22cofactor_elim_term_ite3imp11updt_paramsERK10params_ref(ptr noundef nonnull align 8 dereferenceable(25) %7, ptr noundef nonnull align 8 dereferenceable(8) %8)
  ret void
}