; Function Attrs: mustprogress uwtable
define hidden void @_ZN22cofactor_elim_term_ite11updt_paramsERK10params_ref(ptr noundef nonnull readonly align 8 captures(none) dereferenceable(24) %0, ptr noundef nonnull align 8 dereferenceable(8) %1) local_unnamed_addr #3 align 2 {
  %3 = getelementptr inbounds nuw i8, ptr %0, i64 8
  %4 = load ptr, ptr %3, align 8, !tbaa !17
  %5 = tail call noundef i32 @_ZNK10params_ref8get_uintEPKcj(ptr noundef nonnull align 8 dereferenceable(8) %1, ptr noundef nonnull @.str, i32 noundef -1)
  %6 = icmp eq i32 %5, -1
  %7 = zext i32 %5 to i64
  %8 = shl nuw nsw i64 %7, 20
  %.0.i.i = select i1 %6, i64 -1, i64 %8
  %9 = getelementptr inbounds nuw i8, ptr %4, i64 16
  store i64 %.0.i.i, ptr %9, align 8, !tbaa !16
  %10 = tail call noundef zeroext i1 @_ZNK10params_ref8get_boolEPKcb(ptr noundef nonnull align 8 dereferenceable(8) %1, ptr noundef nonnull @.str.1, i1 noundef zeroext true)
  %11 = getelementptr inbounds nuw i8, ptr %4, i64 24
  %12 = zext i1 %10 to i8
  store i8 %12, ptr %11, align 8, !tbaa !10
  ret void
}